ccopy_reg
_reconstructor
p0
(cgoogle.oauth2.credentials
Credentials
p1
c__builtin__
object
p2
Ntp3
Rp4
(dp5
S'_token_uri'
p6
Vhttps://oauth2.googleapis.com/token
p7
sS'_client_secret'
p8
V1Aoe2Vjk8MMv6R-0CkSiwUCx
p9
sS'_id_token'
p10
NsS'token'
p11
Vya29.GltXBwp1SR8SE-h8zQwI9f8304IRWkgUf_TG4jzkcrq420RwfHZKX3pqThi1rXQDsgwdCUtce-KFmHDrMp5iLQUpBVa1V8HYVfwBPYZ16if6mQYylaLiLGKSxKPH
p12
sS'_refresh_token'
p13
V1/gJUA7EzO26cYPl3hMFxXtFdRmZC7asfK-LO1a8FKHsDP8_GWecF0zajDhRHfxBu3
p14
sS'_scopes'
p15
(lp16
S'https://www.googleapis.com/auth/calendar'
p17
asS'_client_id'
p18
V780534062342-s2l0irk4k8689dp6h3mrepl2lhg8rden.apps.googleusercontent.com
p19
sS'expiry'
p20
cdatetime
datetime
p21
(S'\x07\xe3\x08\x01\x137"\x04\xda0'
p22
tp23
Rp24
sb.