ccopy_reg
_reconstructor
p0
(cgoogle.oauth2.credentials
Credentials
p1
c__builtin__
object
p2
Ntp3
Rp4
(dp5
S'_token_uri'
p6
Vhttps://oauth2.googleapis.com/token
p7
sS'_scopes'
p8
(lp9
S'https://www.googleapis.com/auth/calendar'
p10
asS'_id_token'
p11
NsS'token'
p12
Vya29.GlxjB_otUsBeBRHHcXfBcMRH3e9Q3ARQlCs_cQbpzNcl7ByfWzTChqKcakeAK2OqPjY0J5goVRIE2pHwfQ6EmAvuqQe33viDn8IVbFlDFwoYodT5qa9mGwCpe51qeQ
p13
sS'_refresh_token'
p14
V1/r2vmFQBI1yNAwgJjB60_mI-03WgKfkfP48D1CKGR2e4
p15
sS'_client_secret'
p16
V1Aoe2Vjk8MMv6R-0CkSiwUCx
p17
sS'_client_id'
p18
V780534062342-s2l0irk4k8689dp6h3mrepl2lhg8rden.apps.googleusercontent.com
p19
sS'expiry'
p20
cdatetime
datetime
p21
(S'\x07\xe3\x08\r\x04,#\x04h\xe8'
p22
tp23
Rp24
sb.