ccopy_reg
_reconstructor
p0
(cgoogle.oauth2.credentials
Credentials
p1
c__builtin__
object
p2
Ntp3
Rp4
(dp5
S'_token_uri'
p6
Vhttps://oauth2.googleapis.com/token
p7
sS'_scopes'
p8
(lp9
S'https://www.googleapis.com/auth/calendar'
p10
asS'_id_token'
p11
NsS'token'
p12
Vya29.GlxsB5gNFs6LvUSx7vwOgEznLsL35RYqBgWpAGErjWGhDWqc-14Nw6aGsL3539GIlhnYlg6IJ72sEydMeA9GuchBbJW7K_fWADwYp-ErRRUzt_gtVnJ4mEAEI5E6MQ
p13
sS'_refresh_token'
p14
V1/gJUA7EzO26cYPl3hMFxXtFdRmZC7asfK-LO1a8FKHsDP8_GWecF0zajDhRHfxBu3
p15
sS'_client_secret'
p16
V1Aoe2Vjk8MMv6R-0CkSiwUCx
p17
sS'_client_id'
p18
V780534062342-s2l0irk4k8689dp6h3mrepl2lhg8rden.apps.googleusercontent.com
p19
sS'expiry'
p20
cdatetime
datetime
p21
(S'\x07\xe3\x08\x16\x15,\x11\x04]0'
p22
tp23
Rp24
sb.